; Function Attrs: mustprogress uwtable
define noundef ptr @_ZN6icu_779SpoofData10getDefaultER10UErrorCode(ptr noundef nonnull align 4 dereferenceable(4) %0) local_unnamed_addr #1 align 2 personality ptr @__gxx_personality_v0 {
  %2 = load i32, ptr %0, align 4, !tbaa !19
  %3 = icmp slt i32 %2, 1
  br i1 %3, label %4, label %_ZN6icu_7713umtx_initOnceERNS_9UInitOnceEPFvR10UErrorCodeES3_.exit.thread

4:                                                ; preds = %1
  %5 = load atomic i32, ptr @_ZN6icu_77L21gSpoofInitDefaultOnceE acquire, align 4
  %.not11.i = icmp eq i32 %5, 2
  br i1 %.not11.i, label %27, label %6

6:                                                ; preds = %4
  %7 = tail call noundef signext i8 @_ZN6icu_7720umtx_initImplPreInitERNS_9UInitOnceE(ptr noundef nonnull align 4 dereferenceable(8) @_ZN6icu_77L21gSpoofInitDefaultOnceE)
  %.not12.i = icmp eq i8 %7, 0
  br i1 %.not12.i, label %27, label %8

8:                                                ; preds = %6
  %9 = tail call ptr @udata_openChoice_77(ptr noundef null, ptr noundef nonnull @.str.5, ptr noundef nonnull @.str.6, ptr noundef nonnull @_ZN6icu_77L21spoofDataIsAcceptableEPvPKcS2_PK9UDataInfo, ptr noundef null, ptr noundef nonnull align 4 dereferenceable(4) %0)
  %10 = load i32, ptr %0, align 4, !tbaa !19
  %11 = icmp slt i32 %10, 1
  br i1 %11, label %12, label %_ZN6icu_77L22uspoof_loadDefaultDataER10UErrorCode.exit

12:                                               ; preds = %8
  %13 = tail call noundef ptr @_ZN6icu_777UMemorynwEm(i64 noundef 56) #21
  %14 = icmp eq ptr %13, null
  br i1 %14, label %.thread.i, label %15

15:                                               ; preds = %12
  invoke void @_ZN6icu_779SpoofDataC1EP11UDataMemoryR10UErrorCode(ptr noundef nonnull align 8 dereferenceable(56) %13, ptr noundef %9, ptr noundef nonnull align 4 dereferenceable(4) %0)
          to label %16 unwind label %22

16:                                               ; preds = %15
  store ptr %13, ptr @_ZN6icu_77L17gDefaultSpoofDataE, align 8, !tbaa !24
  %17 = load i32, ptr %0, align 4, !tbaa !19
  %18 = icmp slt i32 %17, 1
  br i1 %18, label %25, label %21

.thread.i:                                        ; preds = %12
  store ptr null, ptr @_ZN6icu_77L17gDefaultSpoofDataE, align 8, !tbaa !24
  %19 = load i32, ptr %0, align 4, !tbaa !19
  %20 = icmp slt i32 %19, 1
  br i1 %20, label %24, label %.thread12.i

21:                                               ; preds = %16
  tail call void @_ZN6icu_779SpoofDataD1Ev(ptr noundef nonnull align 8 dereferenceable(56) %13) #21
  tail call void @_ZN6icu_777UMemorydlEPv(ptr noundef nonnull %13) #21
  br label %.thread12.i

.thread12.i:                                      ; preds = %21, %.thread.i
  store ptr null, ptr @_ZN6icu_77L17gDefaultSpoofDataE, align 8, !tbaa !24
  br label %_ZN6icu_77L22uspoof_loadDefaultDataER10UErrorCode.exit

22:                                               ; preds = %15
  %23 = landingpad { ptr, i32 }
          cleanup
  tail call void @_ZN6icu_777UMemorydlEPv(ptr noundef nonnull %13) #21
  resume { ptr, i32 } %23

24:                                               ; preds = %.thread.i
  store i32 7, ptr %0, align 4, !tbaa !19
  br label %_ZN6icu_77L22uspoof_loadDefaultDataER10UErrorCode.exit

25:                                               ; preds = %16
  tail call void @ucln_i18n_registerCleanup_77(i32 noundef 4, ptr noundef nonnull @_ZN6icu_77L25uspoof_cleanupDefaultDataEv)
  br label %_ZN6icu_77L22uspoof_loadDefaultDataER10UErrorCode.exit

_ZN6icu_77L22uspoof_loadDefaultDataER10UErrorCode.exit: ; preds = %8, %.thread12.i, %24, %25
  %26 = load i32, ptr %0, align 4, !tbaa !19
  store i32 %26, ptr getelementptr inbounds nuw (i8, ptr @_ZN6icu_77L21gSpoofInitDefaultOnceE, i64 4), align 4, !tbaa !25
  tail call void @_ZN6icu_7721umtx_initImplPostInitERNS_9UInitOnceE(ptr noundef nonnull align 4 dereferenceable(8) @_ZN6icu_77L21gSpoofInitDefaultOnceE)
  br label %_ZN6icu_7713umtx_initOnceERNS_9UInitOnceEPFvR10UErrorCodeES3_.exit

27:                                               ; preds = %6, %4
  %28 = load i32, ptr getelementptr inbounds nuw (i8, ptr @_ZN6icu_77L21gSpoofInitDefaultOnceE, i64 4), align 4, !tbaa !25
  %29 = icmp slt i32 %28, 1
  br i1 %29, label %_ZN6icu_7713umtx_initOnceERNS_9UInitOnceEPFvR10UErrorCodeES3_.exit, label %30

30:                                               ; preds = %27
  store i32 %28, ptr %0, align 4, !tbaa !19
  br label %_ZN6icu_7713umtx_initOnceERNS_9UInitOnceEPFvR10UErrorCodeES3_.exit.thread

_ZN6icu_7713umtx_initOnceERNS_9UInitOnceEPFvR10UErrorCodeES3_.exit: ; preds = %_ZN6icu_77L22uspoof_loadDefaultDataER10UErrorCode.exit, %27
  %.pr = load i32, ptr %0, align 4, !tbaa !19
  %31 = icmp slt i32 %.pr, 1
  br i1 %31, label %32, label %_ZN6icu_7713umtx_initOnceERNS_9UInitOnceEPFvR10UErrorCodeES3_.exit.thread

32:                                               ; preds = %_ZN6icu_7713umtx_initOnceERNS_9UInitOnceEPFvR10UErrorCodeES3_.exit
  %33 = load ptr, ptr @_ZN6icu_77L17gDefaultSpoofDataE, align 8, !tbaa !24
  %34 = getelementptr inbounds nuw i8, ptr %33, i64 28
  %35 = atomicrmw add ptr %34, i32 1 seq_cst, align 4
  %36 = load ptr, ptr @_ZN6icu_77L17gDefaultSpoofDataE, align 8, !tbaa !24
  br label %_ZN6icu_7713umtx_initOnceERNS_9UInitOnceEPFvR10UErrorCodeES3_.exit.thread

_ZN6icu_7713umtx_initOnceERNS_9UInitOnceEPFvR10UErrorCodeES3_.exit.thread: ; preds = %30, %1, %_ZN6icu_7713umtx_initOnceERNS_9UInitOnceEPFvR10UErrorCodeES3_.exit, %32
  %.0 = phi ptr [ %36, %32 ], [ null, %_ZN6icu_7713umtx_initOnceERNS_9UInitOnceEPFvR10UErrorCodeES3_.exit ], [ null, %1 ], [ null, %30 ]
  ret ptr %.0
}